target datalayout = "e-m:e-p270:32:32-p271:32:32-p272:64:64-i64:64-i128:128-f80:128-n8:16:32:64-S128"
target triple = "x86_64-pc-linux-gnu"

%struct._voip_calls_tapinfo = type { ptr, ptr, ptr, ptr, i32, ptr, [1 x ptr], i32, ptr, i32, i32, i32, ptr, ptr, i32, ptr, i32, i8, i8, ptr, i32, i32, i32, i8, i32, ptr, ptr, ptr, i8, i32, i32, i32, i16, i32, i8, i32, i32, i32, i32, i32, i32, i8 }
%struct._address = type { i32, i32, ptr, ptr }
%struct.nstime_t = type { i64, i32 }
%struct._packet_info = type { ptr, ptr, i32, i32, %struct.nstime_t, %struct.nstime_t, %struct.nstime_t, i8, ptr, ptr, ptr, ptr, %struct._address, %struct._address, %struct._address, %struct._address, %struct._address, %struct._address, i32, ptr, i8, [3 x i8], %struct.anon, i32, i32, i32, i32, ptr, i8, ptr, ptr, i16, i16, i32, i32, i16, i32, i32, ptr, ptr, ptr, i8, i8, i16, i16, i16, i32, i16, i16, ptr, ptr, ptr, ptr, ptr, i32, i32 }
%struct.anon = type { i8, [3 x i8] }
%struct._mtp3_tap_rec_t = type { %struct._mtp3_addr_pc_t, %struct._mtp3_addr_pc_t, i8, i16 }
%struct._mtp3_addr_pc_t = type { i32, i32, i8 }

; Function Attrs: inlinehint nounwind null_pointer_is_valid sspstrong uwtable
define internal ptr @tap_id_to_base(ptr noundef %0, i32 noundef %1) #4 {
  %3 = alloca ptr, align 8
  %4 = alloca i32, align 4
  store ptr %0, ptr %3, align 8
  store i32 %1, ptr %4, align 4
  %5 = load ptr, ptr %3, align 8
  %6 = ptrtoint ptr %5 to i64
  %7 = load i32, ptr %4, align 4
  %8 = sext i32 %7 to i64
  %9 = sub i64 %6, %8
  %10 = inttoptr i64 %9 to ptr
  ret ptr %10
}

; Function Attrs: nounwind null_pointer_is_valid sspstrong uwtable
define internal i32 @mtp3_calls_packet(ptr noundef %0, ptr noundef %1, ptr noundef %2, ptr noundef %3, i32 noundef %4) #14 {
  %6 = alloca ptr, align 8
  %7 = alloca ptr, align 8
  %8 = alloca ptr, align 8
  %9 = alloca ptr, align 8
  %10 = alloca i32, align 4
  %11 = alloca ptr, align 8
  %12 = alloca ptr, align 8
  store ptr %0, ptr %6, align 8
  store ptr %1, ptr %7, align 8
  store ptr %2, ptr %8, align 8
  store ptr %3, ptr %9, align 8
  store i32 %4, ptr %10, align 4
  call void @llvm.lifetime.start.p0(i64 8, ptr %11) #16
  %13 = load ptr, ptr %6, align 8
  %14 = call ptr @tap_id_to_base(ptr noundef %13, i32 noundef 9)
  store ptr %14, ptr %11, align 8
  call void @llvm.lifetime.start.p0(i64 8, ptr %12) #16
  %15 = load ptr, ptr %9, align 8
  store ptr %15, ptr %12, align 8
  %16 = load ptr, ptr %12, align 8
  %17 = getelementptr inbounds nuw %struct._mtp3_tap_rec_t, ptr %16, i32 0, i32 0
  %18 = getelementptr inbounds nuw %struct._mtp3_addr_pc_t, ptr %17, i32 0, i32 1
  %19 = load i32, ptr %18, align 4
  %20 = load ptr, ptr %11, align 8
  %21 = getelementptr inbounds nuw %struct._voip_calls_tapinfo, ptr %20, i32 0, i32 21
  store i32 %19, ptr %21, align 4
  %22 = load ptr, ptr %12, align 8
  %23 = getelementptr inbounds nuw %struct._mtp3_tap_rec_t, ptr %22, i32 0, i32 1
  %24 = getelementptr inbounds nuw %struct._mtp3_addr_pc_t, ptr %23, i32 0, i32 1
  %25 = load i32, ptr %24, align 4
  %26 = load ptr, ptr %11, align 8
  %27 = getelementptr inbounds nuw %struct._voip_calls_tapinfo, ptr %26, i32 0, i32 22
  store i32 %25, ptr %27, align 8
  %28 = load ptr, ptr %12, align 8
  %29 = getelementptr inbounds nuw %struct._mtp3_tap_rec_t, ptr %28, i32 0, i32 0
  %30 = getelementptr inbounds nuw %struct._mtp3_addr_pc_t, ptr %29, i32 0, i32 2
  %31 = load i8, ptr %30, align 4
  %32 = load ptr, ptr %11, align 8
  %33 = getelementptr inbounds nuw %struct._voip_calls_tapinfo, ptr %32, i32 0, i32 23
  store i8 %31, ptr %33, align 4
  %34 = load ptr, ptr %7, align 8
  %35 = getelementptr inbounds nuw %struct._packet_info, ptr %34, i32 0, i32 3
  %36 = load i32, ptr %35, align 4
  %37 = load ptr, ptr %11, align 8
  %38 = getelementptr inbounds nuw %struct._voip_calls_tapinfo, ptr %37, i32 0, i32 24
  store i32 %36, ptr %38, align 8
  call void @llvm.lifetime.end.p0(i64 8, ptr %12) #16
  call void @llvm.lifetime.end.p0(i64 8, ptr %11) #16
  ret i32 0
}