; Function Attrs: mustprogress nofree norecurse nosync nounwind null_pointer_is_valid sspstrong willreturn memory(write, argmem: readwrite, inaccessiblemem: none) uwtable
define internal noundef i32 @mtp3_calls_packet(ptr noundef %0, ptr noundef readonly captures(none) %1, ptr readnone captures(none) %2, ptr noundef readonly captures(none) %3, i32 %4) #3 {
  %6 = ptrtoint ptr %0 to i64
  %7 = add i64 %6, -9
  %8 = inttoptr i64 %7 to ptr
  %9 = getelementptr inbounds nuw i8, ptr %3, i64 4
  %10 = load i32, ptr %9, align 4
  %11 = getelementptr inbounds nuw i8, ptr %8, i64 140
  store i32 %10, ptr %11, align 4
  %12 = getelementptr inbounds nuw i8, ptr %3, i64 16
  %13 = load i32, ptr %12, align 4
  %14 = getelementptr inbounds nuw i8, ptr %8, i64 144
  store i32 %13, ptr %14, align 8
  %15 = getelementptr inbounds nuw i8, ptr %3, i64 8
  %16 = load i8, ptr %15, align 4
  %17 = getelementptr inbounds nuw i8, ptr %8, i64 148
  store i8 %16, ptr %17, align 4
  %18 = getelementptr inbounds nuw i8, ptr %1, i64 20
  %19 = load i32, ptr %18, align 4
  %20 = getelementptr inbounds nuw i8, ptr %8, i64 152
  store i32 %19, ptr %20, align 8
  ret i32 0
}